; Function Attrs: nounwind uwtable
define noundef i32 @pmix_show_help(ptr noundef %0, ptr noundef %1, i32 noundef %2, ...) local_unnamed_addr #0 {
  %4 = alloca [1 x %struct.__va_list_tag], align 16
  call void @llvm.lifetime.start.p0(i64 24, ptr nonnull %4) #18
  call void @llvm.va_start.p0(ptr nonnull %4)
  %5 = call ptr @pmix_show_help_vstring(ptr noundef %0, ptr noundef %1, i32 noundef %2, ptr noundef nonnull %4)
  call void @llvm.va_end.p0(ptr nonnull %4)
  %6 = icmp eq ptr %5, null
  br i1 %6, label %8, label %7

7:                                                ; preds = %3
  call fastcc void @local_delivery(ptr noundef %0, ptr noundef %1, ptr noundef nonnull %5)
  br label %8

8:                                                ; preds = %3, %7
  call void @llvm.lifetime.end.p0(i64 24, ptr nonnull %4) #18
  ret i32 0
}